target datalayout = "e-m:e-p270:32:32-p271:32:32-p272:64:64-i64:64-i128:128-f80:128-n8:16:32:64-S128"
target triple = "x86_64-pc-linux-gnu"

%struct.Curl_cwriter = type { ptr, ptr, ptr, i32 }
%struct.brotli_writer = type { %struct.Curl_cwriter, [16384 x i8], ptr }

; Function Attrs: nounwind uwtable
define internal void @brotli_do_close(ptr noundef %0, ptr noundef %1) #0 {
  %3 = alloca ptr, align 8
  %4 = alloca ptr, align 8
  %5 = alloca ptr, align 8
  store ptr %0, ptr %3, align 8, !tbaa !20
  store ptr %1, ptr %4, align 8, !tbaa !98
  call void @llvm.lifetime.start.p0(i64 8, ptr %5) #5
  %6 = load ptr, ptr %4, align 8, !tbaa !98
  store ptr %6, ptr %5, align 8, !tbaa !123
  %7 = load ptr, ptr %5, align 8, !tbaa !123
  %8 = getelementptr inbounds nuw %struct.brotli_writer, ptr %7, i32 0, i32 2
  %9 = load ptr, ptr %8, align 8, !tbaa !125
  %10 = icmp ne ptr %9, null
  br i1 %10, label %11, label %17

11:                                               ; preds = %2
  %12 = load ptr, ptr %5, align 8, !tbaa !123
  %13 = getelementptr inbounds nuw %struct.brotli_writer, ptr %12, i32 0, i32 2
  %14 = load ptr, ptr %13, align 8, !tbaa !125
  call void @BrotliDecoderDestroyInstance(ptr noundef %14)
  %15 = load ptr, ptr %5, align 8, !tbaa !123
  %16 = getelementptr inbounds nuw %struct.brotli_writer, ptr %15, i32 0, i32 2
  store ptr null, ptr %16, align 8, !tbaa !125
  br label %17

17:                                               ; preds = %11, %2
  call void @llvm.lifetime.end.p0(i64 8, ptr %5) #5
  ret void
}