; Function Attrs: nounwind uwtable
define internal void @brotli_do_close(ptr readnone captures(none) %0, ptr noundef captures(none) %1) #0 {
  %3 = getelementptr inbounds nuw i8, ptr %1, i64 16416
  %4 = load ptr, ptr %3, align 8, !tbaa !106
  %.not = icmp eq ptr %4, null
  br i1 %.not, label %6, label %5

5:                                                ; preds = %2
  tail call void @BrotliDecoderDestroyInstance(ptr noundef nonnull %4) #8
  store ptr null, ptr %3, align 8, !tbaa !106
  br label %6

6:                                                ; preds = %5, %2
  ret void
}